target datalayout = "e-m:e-p270:32:32-p271:32:32-p272:64:64-i64:64-i128:128-f80:128-n8:16:32:64-S128"
target triple = "x86_64-pc-linux-gnu"

%struct.ObjectAddress = type { i32, i32, i32 }
%struct.ItemPointerData = type { %struct.BlockIdData, i16 }
%struct.BlockIdData = type { i16, i16 }
%struct.ScanKeyData = type { i32, i16, i16, i32, i32, %struct.FmgrInfo, i64 }
%struct.FmgrInfo = type { ptr, i32, i16, i8, i8, i8, ptr, ptr, ptr }
%struct.FormData_pg_depend = type { i32, i32, i32, i32, i32, i32, i8 }
%struct.HeapTupleData = type { i32, %struct.ItemPointerData, i32, ptr }
%struct.HeapTupleHeaderData = type { %union.anon, %struct.ItemPointerData, i16, i16, i8, [0 x i8] }
%union.anon = type { %struct.HeapTupleFields }
%struct.HeapTupleFields = type { i32, i32, %union.anon.0 }
%union.anon.0 = type { i32 }

; Function Attrs: inlinehint nounwind uwtable
define internal ptr @GETSTRUCT(ptr noundef %0) #3 {
  %2 = alloca ptr, align 8
  store ptr %0, ptr %2, align 8
  %3 = load ptr, ptr %2, align 8
  %4 = getelementptr inbounds nuw %struct.HeapTupleData, ptr %3, i32 0, i32 3
  %5 = load ptr, ptr %4, align 8
  %6 = load ptr, ptr %2, align 8
  %7 = getelementptr inbounds nuw %struct.HeapTupleData, ptr %6, i32 0, i32 3
  %8 = load ptr, ptr %7, align 8
  %9 = getelementptr inbounds nuw %struct.HeapTupleHeaderData, ptr %8, i32 0, i32 4
  %10 = load i8, ptr %9, align 2
  %11 = zext i8 %10 to i32
  %12 = sext i32 %11 to i64
  %13 = getelementptr inbounds i8, ptr %5, i64 %12
  ret ptr %13
}

; Function Attrs: inlinehint nounwind uwtable
define internal i64 @ObjectIdGetDatum(i32 noundef %0) #3 {
  %2 = alloca i32, align 4
  store i32 %0, ptr %2, align 4
  %3 = load i32, ptr %2, align 4
  %4 = zext i32 %3 to i64
  ret i64 %4
}

; Function Attrs: nounwind uwtable
define dso_local void @recordDependencyOn(ptr noundef %0, ptr noundef %1, i32 noundef %2) #0 {
  %4 = alloca ptr, align 8
  %5 = alloca ptr, align 8
  %6 = alloca i32, align 4
  store ptr %0, ptr %4, align 8
  store ptr %1, ptr %5, align 8
  store i32 %2, ptr %6, align 4
  %7 = load ptr, ptr %4, align 8
  %8 = load ptr, ptr %5, align 8
  %9 = load i32, ptr %6, align 4
  call void @recordMultipleDependencies(ptr noundef %7, ptr noundef %8, i32 noundef 1, i32 noundef %9)
  ret void
}

; Function Attrs: nounwind uwtable
define internal zeroext i1 @isObjectPinned(ptr noundef %0) #0 {
  %2 = alloca ptr, align 8
  store ptr %0, ptr %2, align 8
  %3 = load ptr, ptr %2, align 8
  %4 = getelementptr inbounds nuw %struct.ObjectAddress, ptr %3, i32 0, i32 0
  %5 = load i32, ptr %4, align 4
  %6 = load ptr, ptr %2, align 8
  %7 = getelementptr inbounds nuw %struct.ObjectAddress, ptr %6, i32 0, i32 1
  %8 = load i32, ptr %7, align 4
  %9 = call zeroext i1 @IsPinnedObject(i32 noundef %5, i32 noundef %8)
  ret i1 %9
}

; Function Attrs: nounwind uwtable
define dso_local i64 @changeDependencyFor(i32 noundef %0, i32 noundef %1, i32 noundef %2, i32 noundef %3, i32 noundef %4) #0 {
  %6 = alloca i64, align 8
  %7 = alloca i32, align 4
  %8 = alloca i32, align 4
  %9 = alloca i32, align 4
  %10 = alloca i32, align 4
  %11 = alloca i32, align 4
  %12 = alloca i64, align 8
  %13 = alloca ptr, align 8
  %14 = alloca [2 x %struct.ScanKeyData], align 16
  %15 = alloca ptr, align 8
  %16 = alloca ptr, align 8
  %17 = alloca %struct.ObjectAddress, align 4
  %18 = alloca %struct.ObjectAddress, align 4
  %19 = alloca i8, align 1
  %20 = alloca i8, align 1
  %21 = alloca i32, align 4
  %22 = alloca ptr, align 8
  store i32 %0, ptr %7, align 4
  store i32 %1, ptr %8, align 4
  store i32 %2, ptr %9, align 4
  store i32 %3, ptr %10, align 4
  store i32 %4, ptr %11, align 4
  call void @llvm.lifetime.start.p0(i64 8, ptr %12) #6
  store i64 0, ptr %12, align 8
  call void @llvm.lifetime.start.p0(i64 8, ptr %13) #6
  call void @llvm.lifetime.start.p0(i64 144, ptr %14) #6
  call void @llvm.lifetime.start.p0(i64 8, ptr %15) #6
  call void @llvm.lifetime.start.p0(i64 8, ptr %16) #6
  call void @llvm.lifetime.start.p0(i64 12, ptr %17) #6
  call void @llvm.lifetime.start.p0(i64 12, ptr %18) #6
  call void @llvm.lifetime.start.p0(i64 1, ptr %19) #6
  call void @llvm.lifetime.start.p0(i64 1, ptr %20) #6
  %23 = load i32, ptr %9, align 4
  %24 = getelementptr inbounds nuw %struct.ObjectAddress, ptr %17, i32 0, i32 0
  store i32 %23, ptr %24, align 4
  %25 = load i32, ptr %10, align 4
  %26 = getelementptr inbounds nuw %struct.ObjectAddress, ptr %17, i32 0, i32 1
  store i32 %25, ptr %26, align 4
  %27 = getelementptr inbounds nuw %struct.ObjectAddress, ptr %17, i32 0, i32 2
  store i32 0, ptr %27, align 4
  %28 = call zeroext i1 @isObjectPinned(ptr noundef %17)
  %29 = zext i1 %28 to i8
  store i8 %29, ptr %19, align 1
  %30 = load i32, ptr %11, align 4
  %31 = getelementptr inbounds nuw %struct.ObjectAddress, ptr %17, i32 0, i32 1
  store i32 %30, ptr %31, align 4
  %32 = call zeroext i1 @isObjectPinned(ptr noundef %17)
  %33 = zext i1 %32 to i8
  store i8 %33, ptr %20, align 1
  %34 = load i8, ptr %19, align 1, !range !7, !noundef !8
  %35 = trunc i8 %34 to i1
  br i1 %35, label %36, label %46

36:                                               ; preds = %5
  %37 = load i8, ptr %20, align 1, !range !7, !noundef !8
  %38 = trunc i8 %37 to i1
  br i1 %38, label %39, label %40

39:                                               ; preds = %36
  store i64 1, ptr %6, align 8
  store i32 1, ptr %21, align 4
  br label %103

40:                                               ; preds = %36
  %41 = load i32, ptr %7, align 4
  %42 = getelementptr inbounds nuw %struct.ObjectAddress, ptr %18, i32 0, i32 0
  store i32 %41, ptr %42, align 4
  %43 = load i32, ptr %8, align 4
  %44 = getelementptr inbounds nuw %struct.ObjectAddress, ptr %18, i32 0, i32 1
  store i32 %43, ptr %44, align 4
  %45 = getelementptr inbounds nuw %struct.ObjectAddress, ptr %18, i32 0, i32 2
  store i32 0, ptr %45, align 4
  call void @recordDependencyOn(ptr noundef %18, ptr noundef %17, i32 noundef 110)
  store i64 1, ptr %6, align 8
  store i32 1, ptr %21, align 4
  br label %103

46:                                               ; preds = %5
  %47 = call ptr @table_open(i32 noundef 2608, i32 noundef 3)
  store ptr %47, ptr %13, align 8
  %48 = getelementptr inbounds [2 x %struct.ScanKeyData], ptr %14, i64 0, i64 0
  %49 = load i32, ptr %7, align 4
  %50 = call i64 @ObjectIdGetDatum(i32 noundef %49)
  call void @ScanKeyInit(ptr noundef %48, i16 noundef signext 1, i16 noundef zeroext 3, i32 noundef 184, i64 noundef %50)
  %51 = getelementptr inbounds [2 x %struct.ScanKeyData], ptr %14, i64 0, i64 1
  %52 = load i32, ptr %8, align 4
  %53 = call i64 @ObjectIdGetDatum(i32 noundef %52)
  call void @ScanKeyInit(ptr noundef %51, i16 noundef signext 2, i16 noundef zeroext 3, i32 noundef 184, i64 noundef %53)
  %54 = load ptr, ptr %13, align 8
  %55 = getelementptr inbounds [2 x %struct.ScanKeyData], ptr %14, i64 0, i64 0
  %56 = call ptr @systable_beginscan(ptr noundef %54, i32 noundef 2673, i1 noundef zeroext true, ptr noundef null, i32 noundef 2, ptr noundef %55)
  store ptr %56, ptr %15, align 8
  br label %57

57:                                               ; preds = %98, %46
  %58 = load ptr, ptr %15, align 8
  %59 = call ptr @systable_getnext(ptr noundef %58)
  store ptr %59, ptr %16, align 8
  %60 = icmp ne ptr %59, null
  br i1 %60, label %61, label %99

61:                                               ; preds = %57
  call void @llvm.lifetime.start.p0(i64 8, ptr %22) #6
  %62 = load ptr, ptr %16, align 8
  %63 = call ptr @GETSTRUCT(ptr noundef %62)
  store ptr %63, ptr %22, align 8
  %64 = load ptr, ptr %22, align 8
  %65 = getelementptr inbounds nuw %struct.FormData_pg_depend, ptr %64, i32 0, i32 3
  %66 = load i32, ptr %65, align 4
  %67 = load i32, ptr %9, align 4
  %68 = icmp eq i32 %66, %67
  br i1 %68, label %69, label %98

69:                                               ; preds = %61
  %70 = load ptr, ptr %22, align 8
  %71 = getelementptr inbounds nuw %struct.FormData_pg_depend, ptr %70, i32 0, i32 4
  %72 = load i32, ptr %71, align 4
  %73 = load i32, ptr %10, align 4
  %74 = icmp eq i32 %72, %73
  br i1 %74, label %75, label %98

75:                                               ; preds = %69
  %76 = load i8, ptr %20, align 1, !range !7, !noundef !8
  %77 = trunc i8 %76 to i1
  br i1 %77, label %78, label %82

78:                                               ; preds = %75
  %79 = load ptr, ptr %13, align 8
  %80 = load ptr, ptr %16, align 8
  %81 = getelementptr inbounds nuw %struct.HeapTupleData, ptr %80, i32 0, i32 1
  call void @CatalogTupleDelete(ptr noundef %79, ptr noundef %81)
  br label %95

82:                                               ; preds = %75
  %83 = load ptr, ptr %16, align 8
  %84 = call ptr @heap_copytuple(ptr noundef %83)
  store ptr %84, ptr %16, align 8
  %85 = load ptr, ptr %16, align 8
  %86 = call ptr @GETSTRUCT(ptr noundef %85)
  store ptr %86, ptr %22, align 8
  %87 = load i32, ptr %11, align 4
  %88 = load ptr, ptr %22, align 8
  %89 = getelementptr inbounds nuw %struct.FormData_pg_depend, ptr %88, i32 0, i32 4
  store i32 %87, ptr %89, align 4
  %90 = load ptr, ptr %13, align 8
  %91 = load ptr, ptr %16, align 8
  %92 = getelementptr inbounds nuw %struct.HeapTupleData, ptr %91, i32 0, i32 1
  %93 = load ptr, ptr %16, align 8
  call void @CatalogTupleUpdate(ptr noundef %90, ptr noundef %92, ptr noundef %93)
  %94 = load ptr, ptr %16, align 8
  call void @heap_freetuple(ptr noundef %94)
  br label %95

95:                                               ; preds = %82, %78
  %96 = load i64, ptr %12, align 8
  %97 = add i64 %96, 1
  store i64 %97, ptr %12, align 8
  br label %98

98:                                               ; preds = %95, %69, %61
  call void @llvm.lifetime.end.p0(i64 8, ptr %22) #6
  br label %57, !llvm.loop !13

99:                                               ; preds = %57
  %100 = load ptr, ptr %15, align 8
  call void @systable_endscan(ptr noundef %100)
  %101 = load ptr, ptr %13, align 8
  call void @table_close(ptr noundef %101, i32 noundef 3)
  %102 = load i64, ptr %12, align 8
  store i64 %102, ptr %6, align 8
  store i32 1, ptr %21, align 4
  br label %103

103:                                              ; preds = %99, %40, %39
  call void @llvm.lifetime.end.p0(i64 1, ptr %20) #6
  call void @llvm.lifetime.end.p0(i64 1, ptr %19) #6
  call void @llvm.lifetime.end.p0(i64 12, ptr %18) #6
  call void @llvm.lifetime.end.p0(i64 12, ptr %17) #6
  call void @llvm.lifetime.end.p0(i64 8, ptr %16) #6
  call void @llvm.lifetime.end.p0(i64 8, ptr %15) #6
  call void @llvm.lifetime.end.p0(i64 144, ptr %14) #6
  call void @llvm.lifetime.end.p0(i64 8, ptr %13) #6
  call void @llvm.lifetime.end.p0(i64 8, ptr %12) #6
  %104 = load i64, ptr %6, align 8
  ret i64 %104
}