; Function Attrs: nounwind uwtable
define dso_local i64 @changeDependencyFor(i32 noundef %0, i32 noundef %1, i32 noundef %2, i32 noundef %3, i32 noundef %4) local_unnamed_addr #0 {
  %6 = alloca [2 x %struct.ScanKeyData], align 16
  %7 = alloca %struct.ObjectAddress, align 4
  %8 = alloca %struct.ObjectAddress, align 4
  call void @llvm.lifetime.start.p0(i64 144, ptr nonnull %6) #7
  call void @llvm.lifetime.start.p0(i64 12, ptr nonnull %7) #7
  call void @llvm.lifetime.start.p0(i64 12, ptr nonnull %8) #7
  store i32 %2, ptr %7, align 4
  %9 = getelementptr inbounds nuw i8, ptr %7, i64 4
  %10 = getelementptr inbounds nuw i8, ptr %7, i64 8
  store i32 0, ptr %10, align 4
  %11 = tail call zeroext i1 @IsPinnedObject(i32 noundef %2, i32 noundef %3) #7
  store i32 %4, ptr %9, align 4
  %12 = tail call zeroext i1 @IsPinnedObject(i32 noundef %2, i32 noundef %4) #7
  %.fr = freeze i1 %12
  br i1 %11, label %13, label %17

13:                                               ; preds = %5
  br i1 %.fr, label %67, label %14

14:                                               ; preds = %13
  store i32 %0, ptr %8, align 4
  %15 = getelementptr inbounds nuw i8, ptr %8, i64 4
  store i32 %1, ptr %15, align 4
  %16 = getelementptr inbounds nuw i8, ptr %8, i64 8
  store i32 0, ptr %16, align 4
  call void @recordMultipleDependencies(ptr noundef nonnull readonly %8, ptr noundef nonnull readonly %7, i32 noundef 1, i32 noundef 110)
  br label %67

17:                                               ; preds = %5
  %18 = tail call ptr @table_open(i32 noundef 2608, i32 noundef 3) #7
  %19 = zext i32 %0 to i64
  call void @ScanKeyInit(ptr noundef nonnull %6, i16 noundef signext 1, i16 noundef zeroext 3, i32 noundef 184, i64 noundef %19) #7
  %20 = getelementptr inbounds nuw i8, ptr %6, i64 72
  %21 = zext i32 %1 to i64
  call void @ScanKeyInit(ptr noundef nonnull %20, i16 noundef signext 2, i16 noundef zeroext 3, i32 noundef 184, i64 noundef %21) #7
  %22 = call ptr @systable_beginscan(ptr noundef %18, i32 noundef 2673, i1 noundef zeroext true, ptr noundef null, i32 noundef 2, ptr noundef nonnull %6) #7
  %23 = call ptr @systable_getnext(ptr noundef %22) #7
  %.not38 = icmp eq ptr %23, null
  br i1 %.not38, label %._crit_edge, label %.lr.ph

.lr.ph:                                           ; preds = %17
  br i1 %.fr, label %.lr.ph.split.us, label %.lr.ph.split

.lr.ph.split.us:                                  ; preds = %.lr.ph, %40
  %24 = phi ptr [ %41, %40 ], [ %23, %.lr.ph ]
  %.03139.us = phi i64 [ %.1.us, %40 ], [ 0, %.lr.ph ]
  %25 = getelementptr i8, ptr %24, i64 16
  %.val37.us = load ptr, ptr %25, align 8
  %26 = getelementptr inbounds nuw i8, ptr %.val37.us, i64 22
  %27 = load i8, ptr %26, align 2
  %28 = zext i8 %27 to i64
  %29 = getelementptr inbounds nuw i8, ptr %.val37.us, i64 %28
  %30 = getelementptr inbounds nuw i8, ptr %29, i64 12
  %31 = load i32, ptr %30, align 4
  %32 = icmp eq i32 %31, %2
  br i1 %32, label %33, label %40

33:                                               ; preds = %.lr.ph.split.us
  %34 = getelementptr inbounds nuw i8, ptr %29, i64 16
  %35 = load i32, ptr %34, align 4
  %36 = icmp eq i32 %35, %3
  br i1 %36, label %37, label %40

37:                                               ; preds = %33
  %38 = getelementptr inbounds nuw i8, ptr %24, i64 4
  call void @CatalogTupleDelete(ptr noundef %18, ptr noundef nonnull %38) #7
  %39 = add i64 %.03139.us, 1
  br label %40

40:                                               ; preds = %37, %33, %.lr.ph.split.us
  %.1.us = phi i64 [ %39, %37 ], [ %.03139.us, %33 ], [ %.03139.us, %.lr.ph.split.us ]
  %41 = call ptr @systable_getnext(ptr noundef %22) #7
  %.not.us = icmp eq ptr %41, null
  br i1 %.not.us, label %._crit_edge, label %.lr.ph.split.us, !llvm.loop !12

.lr.ph.split:                                     ; preds = %.lr.ph, %65
  %42 = phi ptr [ %66, %65 ], [ %23, %.lr.ph ]
  %.03139 = phi i64 [ %.1, %65 ], [ 0, %.lr.ph ]
  %43 = getelementptr i8, ptr %42, i64 16
  %.val37 = load ptr, ptr %43, align 8
  %44 = getelementptr inbounds nuw i8, ptr %.val37, i64 22
  %45 = load i8, ptr %44, align 2
  %46 = zext i8 %45 to i64
  %47 = getelementptr inbounds nuw i8, ptr %.val37, i64 %46
  %48 = getelementptr inbounds nuw i8, ptr %47, i64 12
  %49 = load i32, ptr %48, align 4
  %50 = icmp eq i32 %49, %2
  br i1 %50, label %51, label %65

51:                                               ; preds = %.lr.ph.split
  %52 = getelementptr inbounds nuw i8, ptr %47, i64 16
  %53 = load i32, ptr %52, align 4
  %54 = icmp eq i32 %53, %3
  br i1 %54, label %55, label %65

55:                                               ; preds = %51
  %56 = call ptr @heap_copytuple(ptr noundef nonnull %42) #7
  %57 = getelementptr i8, ptr %56, i64 16
  %.val36 = load ptr, ptr %57, align 8
  %58 = getelementptr inbounds nuw i8, ptr %.val36, i64 22
  %59 = load i8, ptr %58, align 2
  %60 = zext i8 %59 to i64
  %61 = getelementptr inbounds nuw i8, ptr %.val36, i64 %60
  %62 = getelementptr inbounds nuw i8, ptr %61, i64 16
  store i32 %4, ptr %62, align 4
  %63 = getelementptr inbounds nuw i8, ptr %56, i64 4
  call void @CatalogTupleUpdate(ptr noundef %18, ptr noundef nonnull %63, ptr noundef %56) #7
  call void @heap_freetuple(ptr noundef %56) #7
  %64 = add i64 %.03139, 1
  br label %65

65:                                               ; preds = %55, %51, %.lr.ph.split
  %.1 = phi i64 [ %64, %55 ], [ %.03139, %51 ], [ %.03139, %.lr.ph.split ]
  %66 = call ptr @systable_getnext(ptr noundef %22) #7
  %.not = icmp eq ptr %66, null
  br i1 %.not, label %._crit_edge, label %.lr.ph.split, !llvm.loop !12

._crit_edge:                                      ; preds = %65, %40, %17
  %.031.lcssa = phi i64 [ 0, %17 ], [ %.1.us, %40 ], [ %.1, %65 ]
  call void @systable_endscan(ptr noundef %22) #7
  call void @table_close(ptr noundef %18, i32 noundef 3) #7
  br label %67

67:                                               ; preds = %13, %._crit_edge, %14
  %.0 = phi i64 [ 1, %14 ], [ %.031.lcssa, %._crit_edge ], [ 1, %13 ]
  call void @llvm.lifetime.end.p0(i64 12, ptr nonnull %8) #7
  call void @llvm.lifetime.end.p0(i64 12, ptr nonnull %7) #7
  call void @llvm.lifetime.end.p0(i64 144, ptr nonnull %6) #7
  ret i64 %.0
}